ccopy_reg
_reconstructor
p1
(cnltk.classify.decisiontree
DecisionTreeClassifier
p2
c__builtin__
object
p3
NtRp4
(dp5
S'_fname'
p6
S'positive'
p7
sS'_label'
p8
S'pos'
p9
sS'_decisions'
p10
(dp11
I0
g1
(g2
g3
NtRp12
(dp13
g6
S'negative'
p14
sg8
g9
sg10
(dp15
I0
g1
(g2
g3
NtRp16
(dp17
g6
Nsg8
S'neg'
p18
sg10
NsS'_default'
p19
NsbsI1
g1
(g2
g3
NtRp20
(dp21
g6
Nsg8
g18
sg10
Nsg19
NsbsI2
g1
(g2
g3
NtRp22
(dp23
g6
Nsg8
g18
sg10
Nsg19
NsbsI3
g1
(g2
g3
NtRp24
(dp25
g6
Nsg8
g18
sg10
Nsg19
NsbsI4
g1
(g2
g3
NtRp26
(dp27
g6
Nsg8
g18
sg10
Nsg19
NsbsI5
g1
(g2
g3
NtRp28
(dp29
g6
Nsg8
g18
sg10
Nsg19
NsbsI6
g1
(g2
g3
NtRp30
(dp31
g6
Nsg8
g18
sg10
Nsg19
NsbsI7
g1
(g2
g3
NtRp32
(dp33
g6
Nsg8
g18
sg10
Nsg19
NsbsI8
g1
(g2
g3
NtRp34
(dp35
g6
Nsg8
g18
sg10
Nsg19
NsbsI9
g1
(g2
g3
NtRp36
(dp37
g6
Nsg8
g18
sg10
Nsg19
NsbsI10
g1
(g2
g3
NtRp38
(dp39
g6
Nsg8
g18
sg10
Nsg19
NsbsI11
g1
(g2
g3
NtRp40
(dp41
g6
Nsg8
g18
sg10
Nsg19
NsbsI12
g1
(g2
g3
NtRp42
(dp43
g6
Nsg8
g18
sg10
Nsg19
NsbsI13
g1
(g2
g3
NtRp44
(dp45
g6
Nsg8
g18
sg10
Nsg19
NsbsI15
g1
(g2
g3
NtRp46
(dp47
g6
Nsg8
g18
sg10
Nsg19
NsbsI16
g1
(g2
g3
NtRp48
(dp49
g6
Nsg8
g18
sg10
Nsg19
NsbsI17
g1
(g2
g3
NtRp50
(dp51
g6
Nsg8
g18
sg10
Nsg19
NsbsI18
g1
(g2
g3
NtRp52
(dp53
g6
Nsg8
g9
sg10
Nsg19
NsbsI20
g1
(g2
g3
NtRp54
(dp55
g6
Nsg8
g18
sg10
Nsg19
Nsbssg19
NsbsI1
g1
(g2
g3
NtRp56
(dp57
g6
g14
sg8
g9
sg10
(dp58
I0
g1
(g2
g3
NtRp59
(dp60
g6
S'inverters'
p61
sg8
g9
sg10
(dp62
I0
g1
(g2
g3
NtRp63
(dp64
g6
Nsg8
g9
sg10
Nsg19
NsbsI1
g1
(g2
g3
NtRp65
(dp66
g6
Nsg8
g18
sg10
Nsg19
Nsbssg19
NsbsI1
g1
(g2
g3
NtRp67
(dp68
g6
g61
sg8
g9
sg10
(dp69
I0
g1
(g2
g3
NtRp70
(dp71
g6
Nsg8
g9
sg10
Nsg19
NsbsI1
g1
(g2
g3
NtRp72
(dp73
g6
Nsg8
g18
sg10
Nsg19
Nsbssg19
NsbsI2
g1
(g2
g3
NtRp74
(dp75
g6
Nsg8
g18
sg10
Nsg19
NsbsI3
g1
(g2
g3
NtRp76
(dp77
g6
g61
sg8
g9
sg10
(dp78
I0
g1
(g2
g3
NtRp79
(dp80
g6
Nsg8
g9
sg10
Nsg19
NsbsI1
g1
(g2
g3
NtRp81
(dp82
g6
Nsg8
g18
sg10
Nsg19
Nsbssg19
NsbsI4
g1
(g2
g3
NtRp83
(dp84
g6
g61
sg8
g18
sg10
(dp85
I0
g1
(g2
g3
NtRp86
(dp87
g6
Nsg8
g9
sg10
Nsg19
NsbsI1
g1
(g2
g3
NtRp88
(dp89
g6
Nsg8
g18
sg10
Nsg19
Nsbssg19
NsbsI5
g1
(g2
g3
NtRp90
(dp91
g6
Nsg8
g18
sg10
Nsg19
NsbsI6
g1
(g2
g3
NtRp92
(dp93
g6
Nsg8
g18
sg10
Nsg19
NsbsI7
g1
(g2
g3
NtRp94
(dp95
g6
Nsg8
g18
sg10
Nsg19
NsbsI8
g1
(g2
g3
NtRp96
(dp97
g6
g61
sg8
g18
sg10
(dp98
I0
g1
(g2
g3
NtRp99
(dp100
g6
Nsg8
g18
sg10
Nsg19
NsbsI1
g1
(g2
g3
NtRp101
(dp102
g6
Nsg8
g9
sg10
Nsg19
Nsbssg19
NsbsI9
g1
(g2
g3
NtRp103
(dp104
g6
Nsg8
g9
sg10
Nsg19
NsbsI10
g1
(g2
g3
NtRp105
(dp106
g6
Nsg8
g18
sg10
Nsg19
NsbsI11
g1
(g2
g3
NtRp107
(dp108
g6
Nsg8
g18
sg10
Nsg19
NsbsI12
g1
(g2
g3
NtRp109
(dp110
g6
Nsg8
g18
sg10
Nsg19
NsbsI13
g1
(g2
g3
NtRp111
(dp112
g6
Nsg8
g18
sg10
Nsg19
NsbsI14
g1
(g2
g3
NtRp113
(dp114
g6
Nsg8
g18
sg10
Nsg19
NsbsI15
g1
(g2
g3
NtRp115
(dp116
g6
Nsg8
g18
sg10
Nsg19
NsbsI16
g1
(g2
g3
NtRp117
(dp118
g6
Nsg8
g18
sg10
Nsg19
Nsbssg19
NsbsI2
g1
(g2
g3
NtRp119
(dp120
g6
g14
sg8
g9
sg10
(dp121
I0
g1
(g2
g3
NtRp122
(dp123
g6
Nsg8
g9
sg10
Nsg19
NsbsI1
g1
(g2
g3
NtRp124
(dp125
g6
g61
sg8
g18
sg10
(dp126
I0
g1
(g2
g3
NtRp127
(dp128
g6
Nsg8
g18
sg10
Nsg19
NsbsI1
g1
(g2
g3
NtRp129
(dp130
g6
Nsg8
g9
sg10
Nsg19
Nsbssg19
NsbsI2
g1
(g2
g3
NtRp131
(dp132
g6
Nsg8
g18
sg10
Nsg19
NsbsI3
g1
(g2
g3
NtRp133
(dp134
g6
Nsg8
g9
sg10
Nsg19
NsbsI4
g1
(g2
g3
NtRp135
(dp136
g6
Nsg8
g9
sg10
Nsg19
NsbsI5
g1
(g2
g3
NtRp137
(dp138
g6
g61
sg8
g9
sg10
(dp139
I0
g1
(g2
g3
NtRp140
(dp141
g6
Nsg8
g9
sg10
Nsg19
NsbsI1
g1
(g2
g3
NtRp142
(dp143
g6
Nsg8
g18
sg10
Nsg19
Nsbssg19
NsbsI6
g1
(g2
g3
NtRp144
(dp145
g6
g61
sg8
g18
sg10
(dp146
I0
g1
(g2
g3
NtRp147
(dp148
g6
Nsg8
g18
sg10
Nsg19
NsbsI1
g1
(g2
g3
NtRp149
(dp150
g6
Nsg8
g9
sg10
Nsg19
Nsbssg19
NsbsI7
g1
(g2
g3
NtRp151
(dp152
g6
Nsg8
g9
sg10
Nsg19
NsbsI8
g1
(g2
g3
NtRp153
(dp154
g6
Nsg8
g18
sg10
Nsg19
NsbsI9
g1
(g2
g3
NtRp155
(dp156
g6
g61
sg8
g9
sg10
(dp157
I0
g1
(g2
g3
NtRp158
(dp159
g6
Nsg8
g9
sg10
Nsg19
NsbsI1
g1
(g2
g3
NtRp160
(dp161
g6
Nsg8
g18
sg10
Nsg19
Nsbssg19
NsbsI10
g1
(g2
g3
NtRp162
(dp163
g6
Nsg8
g9
sg10
Nsg19
NsbsI11
g1
(g2
g3
NtRp164
(dp165
g6
Nsg8
g18
sg10
Nsg19
NsbsI12
g1
(g2
g3
NtRp166
(dp167
g6
Nsg8
g18
sg10
Nsg19
NsbsI13
g1
(g2
g3
NtRp168
(dp169
g6
Nsg8
g18
sg10
Nsg19
NsbsI14
g1
(g2
g3
NtRp170
(dp171
g6
Nsg8
g18
sg10
Nsg19
NsbsI15
g1
(g2
g3
NtRp172
(dp173
g6
Nsg8
g18
sg10
Nsg19
Nsbssg19
NsbsI3
g1
(g2
g3
NtRp174
(dp175
g6
g14
sg8
g9
sg10
(dp176
I1
g1
(g2
g3
NtRp177
(dp178
g6
Nsg8
g18
sg10
Nsg19
NsbsI2
g1
(g2
g3
NtRp179
(dp180
g6
Nsg8
g9
sg10
Nsg19
NsbsI3
g1
(g2
g3
NtRp181
(dp182
g6
Nsg8
g9
sg10
Nsg19
NsbsI4
g1
(g2
g3
NtRp183
(dp184
g6
Nsg8
g9
sg10
Nsg19
NsbsI5
g1
(g2
g3
NtRp185
(dp186
g6
g61
sg8
g18
sg10
(dp187
I0
g1
(g2
g3
NtRp188
(dp189
g6
Nsg8
g9
sg10
Nsg19
NsbsI1
g1
(g2
g3
NtRp190
(dp191
g6
Nsg8
g18
sg10
Nsg19
Nsbssg19
NsbsI6
g1
(g2
g3
NtRp192
(dp193
g6
Nsg8
g18
sg10
Nsg19
NsbsI7
g1
(g2
g3
NtRp194
(dp195
g6
Nsg8
g9
sg10
Nsg19
NsbsI8
g1
(g2
g3
NtRp196
(dp197
g6
Nsg8
g9
sg10
Nsg19
NsbsI9
g1
(g2
g3
NtRp198
(dp199
g6
g61
sg8
g9
sg10
(dp200
I0
g1
(g2
g3
NtRp201
(dp202
g6
Nsg8
g9
sg10
Nsg19
NsbsI1
g1
(g2
g3
NtRp203
(dp204
g6
Nsg8
g18
sg10
Nsg19
Nsbssg19
NsbsI10
g1
(g2
g3
NtRp205
(dp206
g6
Nsg8
g9
sg10
Nsg19
NsbsI11
g1
(g2
g3
NtRp207
(dp208
g6
Nsg8
g18
sg10
Nsg19
NsbsI12
g1
(g2
g3
NtRp209
(dp210
g6
Nsg8
g9
sg10
Nsg19
NsbsI13
g1
(g2
g3
NtRp211
(dp212
g6
Nsg8
g18
sg10
Nsg19
NsbsI17
g1
(g2
g3
NtRp213
(dp214
g6
Nsg8
g9
sg10
Nsg19
Nsbssg19
NsbsI4
g1
(g2
g3
NtRp215
(dp216
g6
Nsg8
g9
sg10
Nsg19
NsbsI5
g1
(g2
g3
NtRp217
(dp218
g6
Nsg8
g9
sg10
Nsg19
NsbsI6
g1
(g2
g3
NtRp219
(dp220
g6
g14
sg8
g18
sg10
(dp221
I3
g1
(g2
g3
NtRp222
(dp223
g6
Nsg8
g9
sg10
Nsg19
NsbsI19
g1
(g2
g3
NtRp224
(dp225
g6
Nsg8
g9
sg10
Nsg19
NsbsI4
g1
(g2
g3
NtRp226
(dp227
g6
Nsg8
g9
sg10
Nsg19
NsbsI5
g1
(g2
g3
NtRp228
(dp229
g6
Nsg8
g18
sg10
Nsg19
Nsbssg19
NsbsI7
g1
(g2
g3
NtRp230
(dp231
g6
Nsg8
g9
sg10
Nsg19
NsbsI8
g1
(g2
g3
NtRp232
(dp233
g6
Nsg8
g9
sg10
Nsg19
Nsbssg19
Nsb.